target datalayout = "e-m:e-p270:32:32-p271:32:32-p272:64:64-i64:64-i128:128-f80:128-n8:16:32:64-S128"
target triple = "x86_64-pc-linux-gnu"

%struct.dirent = type { i64, i64, i16, i8, [256 x i8] }
%"class.SystemProcessInterface::SystemProcesses::ProcessIterator" = type <{ ptr, ptr, i8, [4096 x i8], [4096 x i8], [7 x i8] }>

@.str.4 = private unnamed_addr constant [14 x i8] c"/proc/%s/stat\00", align 1
@.str.5 = private unnamed_addr constant [2 x i8] c"r\00", align 1

; Function Attrs: mustprogress nounwind uwtable
define linkonce_odr hidden noundef i64 @_Z4MIN2ImET_S0_S0_(i64 noundef %0, i64 noundef %1) #1 comdat {
  %3 = alloca i64, align 8
  %4 = alloca i64, align 8
  store i64 %0, ptr %3, align 8
  store i64 %1, ptr %4, align 8
  %5 = load i64, ptr %3, align 8
  %6 = load i64, ptr %4, align 8
  %7 = icmp ult i64 %5, %6
  br i1 %7, label %8, label %10

8:                                                ; preds = %2
  %9 = load i64, ptr %3, align 8
  br label %12

10:                                               ; preds = %2
  %11 = load i64, ptr %4, align 8
  br label %12

12:                                               ; preds = %10, %8
  %13 = phi i64 [ %9, %8 ], [ %11, %10 ]
  ret i64 %13
}

; Function Attrs: mustprogress nounwind uwtable
define hidden void @_ZN22SystemProcessInterface15SystemProcesses15ProcessIterator12get_exe_nameEv(ptr noundef nonnull align 8 dereferenceable(8209) %0) #1 align 2 {
  %2 = alloca ptr, align 8
  %3 = alloca ptr, align 8
  %4 = alloca [4096 x i8], align 16
  %5 = alloca ptr, align 8
  %6 = alloca ptr, align 8
  %7 = alloca i64, align 8
  store ptr %0, ptr %2, align 8
  %8 = load ptr, ptr %2, align 8
  %9 = getelementptr inbounds [4096 x i8], ptr %4, i64 0, i64 0
  %10 = getelementptr inbounds %"class.SystemProcessInterface::SystemProcesses::ProcessIterator", ptr %8, i32 0, i32 1
  %11 = load ptr, ptr %10, align 8
  %12 = getelementptr inbounds %struct.dirent, ptr %11, i32 0, i32 4
  %13 = getelementptr inbounds [256 x i8], ptr %12, i64 0, i64 0
  %14 = call i32 (ptr, i64, ptr, ...) @jio_snprintf(ptr noundef %9, i64 noundef 4096, ptr noundef @.str.4, ptr noundef %13)
  %15 = getelementptr inbounds [4096 x i8], ptr %4, i64 0, i64 4095
  store i8 0, ptr %15, align 1
  %16 = getelementptr inbounds [4096 x i8], ptr %4, i64 0, i64 0
  %17 = call noundef ptr @_ZN2os5fopenEPKcS1_(ptr noundef %16, ptr noundef @.str.5)
  store ptr %17, ptr %3, align 8
  %18 = icmp ne ptr %17, null
  br i1 %18, label %19, label %61

19:                                               ; preds = %1
  %20 = getelementptr inbounds [4096 x i8], ptr %4, i64 0, i64 0
  %21 = load ptr, ptr %3, align 8
  %22 = call ptr @fgets(ptr noundef %20, i32 noundef 4096, ptr noundef %21)
  %23 = icmp ne ptr %22, null
  br i1 %23, label %24, label %58

24:                                               ; preds = %19
  %25 = getelementptr inbounds [4096 x i8], ptr %4, i64 0, i64 0
  %26 = call noundef ptr @strchr(ptr noundef %25, i32 noundef 40) #9
  store ptr %26, ptr %5, align 8
  %27 = load ptr, ptr %5, align 8
  %28 = icmp ne ptr %27, null
  br i1 %28, label %29, label %57

29:                                               ; preds = %24
  %30 = load ptr, ptr %5, align 8
  %31 = getelementptr inbounds i8, ptr %30, i64 1
  %32 = load i8, ptr %31, align 1
  %33 = sext i8 %32 to i32
  %34 = icmp ne i32 %33, 0
  br i1 %34, label %35, label %57

35:                                               ; preds = %29
  %36 = load ptr, ptr %5, align 8
  %37 = getelementptr inbounds i8, ptr %36, i32 1
  store ptr %37, ptr %5, align 8
  %38 = load ptr, ptr %5, align 8
  %39 = call noundef ptr @strrchr(ptr noundef %38, i32 noundef 41) #9
  store ptr %39, ptr %6, align 8
  %40 = load ptr, ptr %6, align 8
  %41 = icmp ne ptr %40, null
  br i1 %41, label %42, label %56

42:                                               ; preds = %35
  %43 = load ptr, ptr %6, align 8
  %44 = load ptr, ptr %5, align 8
  %45 = ptrtoint ptr %43 to i64
  %46 = ptrtoint ptr %44 to i64
  %47 = sub i64 %45, %46
  %48 = call noundef i64 @_Z4MIN2ImET_S0_S0_(i64 noundef %47, i64 noundef 4095)
  store i64 %48, ptr %7, align 8
  %49 = getelementptr inbounds %"class.SystemProcessInterface::SystemProcesses::ProcessIterator", ptr %8, i32 0, i32 3
  %50 = getelementptr inbounds [4096 x i8], ptr %49, i64 0, i64 0
  %51 = load ptr, ptr %5, align 8
  %52 = load i64, ptr %7, align 8
  call void @llvm.memcpy.p0.p0.i64(ptr align 1 %50, ptr align 1 %51, i64 %52, i1 false)
  %53 = getelementptr inbounds %"class.SystemProcessInterface::SystemProcesses::ProcessIterator", ptr %8, i32 0, i32 3
  %54 = load i64, ptr %7, align 8
  %55 = getelementptr inbounds [4096 x i8], ptr %53, i64 0, i64 %54
  store i8 0, ptr %55, align 1
  br label %56

56:                                               ; preds = %42, %35
  br label %57

57:                                               ; preds = %56, %29, %24
  br label %58

58:                                               ; preds = %57, %19
  %59 = load ptr, ptr %3, align 8
  %60 = call i32 @fclose(ptr noundef %59)
  br label %61

61:                                               ; preds = %58, %1
  ret void
}