; Function Attrs: mustprogress nounwind uwtable
define hidden void @_ZN22SystemProcessInterface15SystemProcesses15ProcessIterator12get_exe_nameEv(ptr nocapture noundef nonnull align 8 dereferenceable(8209) %0) local_unnamed_addr #0 align 2 {
  %2 = alloca [4096 x i8], align 16
  %3 = getelementptr inbounds i8, ptr %0, i64 8
  %4 = load ptr, ptr %3, align 8
  %5 = getelementptr inbounds i8, ptr %4, i64 19
  %6 = call i32 (ptr, i64, ptr, ...) @jio_snprintf(ptr noundef nonnull %2, i64 noundef 4096, ptr noundef nonnull @.str.4, ptr noundef nonnull %5) #18
  %7 = getelementptr inbounds i8, ptr %2, i64 4095
  store i8 0, ptr %7, align 1
  %8 = call noundef ptr @_ZN2os5fopenEPKcS1_(ptr noundef nonnull %2, ptr noundef nonnull @.str.5) #18
  %.not = icmp eq ptr %8, null
  br i1 %.not, label %27, label %9

9:                                                ; preds = %1
  %10 = call ptr @fgets(ptr noundef nonnull %2, i32 noundef 4096, ptr noundef nonnull %8)
  %.not14 = icmp eq ptr %10, null
  br i1 %.not14, label %25, label %11

11:                                               ; preds = %9
  %12 = call noundef ptr @strchr(ptr noundef nonnull dereferenceable(1) %2, i32 noundef 40) #19
  %.not15 = icmp eq ptr %12, null
  br i1 %.not15, label %25, label %13

13:                                               ; preds = %11
  %14 = getelementptr inbounds i8, ptr %12, i64 1
  %15 = load i8, ptr %14, align 1
  %.not16 = icmp eq i8 %15, 0
  br i1 %.not16, label %25, label %16

16:                                               ; preds = %13
  %17 = call noundef ptr @strrchr(ptr noundef nonnull dereferenceable(1) %14, i32 noundef 41) #19
  %.not17 = icmp eq ptr %17, null
  br i1 %.not17, label %25, label %18

18:                                               ; preds = %16
  %19 = ptrtoint ptr %17 to i64
  %20 = ptrtoint ptr %14 to i64
  %21 = sub i64 %19, %20
  %22 = call noundef i64 @llvm.umin.i64(i64 %21, i64 4095)
  %23 = getelementptr inbounds i8, ptr %0, i64 17
  call void @llvm.memcpy.p0.p0.i64(ptr nonnull align 1 %23, ptr nonnull align 1 %14, i64 %22, i1 false)
  %24 = getelementptr inbounds [4096 x i8], ptr %23, i64 0, i64 %22
  store i8 0, ptr %24, align 1
  br label %25

25:                                               ; preds = %11, %13, %18, %16, %9
  %26 = call i32 @fclose(ptr noundef nonnull %8)
  br label %27

27:                                               ; preds = %25, %1
  ret void
}